target datalayout = "e-m:e-p270:32:32-p271:32:32-p272:64:64-i64:64-i128:128-f80:128-n8:16:32:64-S128"
target triple = "x86_64-pc-linux-gnu"

%"class.pbrt::SquareMatrix" = type { [3 x [3 x float]] }
%"class.pbrt::Point2" = type { %"class.pbrt::Tuple2" }
%"class.pbrt::Tuple2" = type { float, float }
%"class.pbrt::RGBColorSpace" = type { %"class.pbrt::Point2", %"class.pbrt::Point2", %"class.pbrt::Point2", %"class.pbrt::Point2", %"class.pbrt::DenselySampledSpectrum", %"class.pbrt::SquareMatrix", %"class.pbrt::SquareMatrix", ptr }
%"class.pbrt::DenselySampledSpectrum" = type { i32, i32, %"class.pstd::vector" }
%"class.pstd::vector" = type { %"class.pstd::pmr::polymorphic_allocator.0", ptr, i64, i64 }
%"class.pstd::pmr::polymorphic_allocator.0" = type { ptr }
%"class.pbrt::RGBSigmoidPolynomial" = type { float, float, float }
%"class.pbrt::RGB" = type { float, float, float }

; Function Attrs: mustprogress nounwind uwtable
define linkonce_odr dso_local void @_ZN4pbrt3RGBC2Efff(ptr noundef nonnull align 4 dereferenceable(12) %0, float noundef %1, float noundef %2, float noundef %3) unnamed_addr #5 comdat align 2 {
  %5 = alloca ptr, align 8
  %6 = alloca float, align 4
  %7 = alloca float, align 4
  %8 = alloca float, align 4
  store ptr %0, ptr %5, align 8, !tbaa !205
  store float %1, ptr %6, align 4, !tbaa !9
  store float %2, ptr %7, align 4, !tbaa !9
  store float %3, ptr %8, align 4, !tbaa !9
  %9 = load ptr, ptr %5, align 8
  %10 = getelementptr inbounds nuw %"class.pbrt::RGB", ptr %9, i32 0, i32 0
  %11 = load float, ptr %6, align 4, !tbaa !9
  store float %11, ptr %10, align 4, !tbaa !207
  %12 = getelementptr inbounds nuw %"class.pbrt::RGB", ptr %9, i32 0, i32 1
  %13 = load float, ptr %7, align 4, !tbaa !9
  store float %13, ptr %12, align 4, !tbaa !209
  %14 = getelementptr inbounds nuw %"class.pbrt::RGB", ptr %9, i32 0, i32 2
  %15 = load float, ptr %8, align 4, !tbaa !9
  store float %15, ptr %14, align 4, !tbaa !210
  ret void
}

; Function Attrs: inlinehint mustprogress nounwind uwtable
define linkonce_odr dso_local noundef nonnull align 4 dereferenceable(4) ptr @_ZSt3maxIfERKT_S2_S2_(ptr noundef nonnull align 4 dereferenceable(4) %0, ptr noundef nonnull align 4 dereferenceable(4) %1) #9 comdat {
  %3 = alloca ptr, align 8
  %4 = alloca ptr, align 8
  %5 = alloca ptr, align 8
  store ptr %0, ptr %4, align 8, !tbaa !92
  store ptr %1, ptr %5, align 8, !tbaa !92
  %6 = load ptr, ptr %4, align 8, !tbaa !92
  %7 = load float, ptr %6, align 4, !tbaa !9
  %8 = load ptr, ptr %5, align 8, !tbaa !92
  %9 = load float, ptr %8, align 4, !tbaa !9
  %10 = fcmp olt float %7, %9
  br i1 %10, label %11, label %13

11:                                               ; preds = %2
  %12 = load ptr, ptr %5, align 8, !tbaa !92
  store ptr %12, ptr %3, align 8
  br label %15

13:                                               ; preds = %2
  %14 = load ptr, ptr %4, align 8, !tbaa !92
  store ptr %14, ptr %3, align 8
  br label %15

15:                                               ; preds = %13, %11
  %16 = load ptr, ptr %3, align 8
  ret ptr %16
}

; Function Attrs: inlinehint mustprogress uwtable
define linkonce_odr dso_local { <2 x float>, float } @_ZN4pbrt9ClampZeroENS_3RGBE(<2 x float> %0, float %1) #8 comdat {
  %3 = alloca %"class.pbrt::RGB", align 4
  %4 = alloca %"class.pbrt::RGB", align 4
  %5 = alloca { <2 x float>, float }, align 4
  %6 = alloca float, align 4
  %7 = alloca float, align 4
  %8 = alloca float, align 4
  %9 = alloca { <2 x float>, float }, align 8
  %10 = getelementptr inbounds nuw { <2 x float>, float }, ptr %5, i32 0, i32 0
  store <2 x float> %0, ptr %10, align 4
  %11 = getelementptr inbounds nuw { <2 x float>, float }, ptr %5, i32 0, i32 1
  store float %1, ptr %11, align 4
  call void @llvm.memcpy.p0.p0.i64(ptr align 4 %4, ptr align 4 %5, i64 12, i1 false)
  call void @llvm.lifetime.start.p0(i64 4, ptr %6) #20
  store float 0.000000e+00, ptr %6, align 4, !tbaa !9
  %12 = getelementptr inbounds nuw %"class.pbrt::RGB", ptr %4, i32 0, i32 0
  %13 = call noundef nonnull align 4 dereferenceable(4) ptr @_ZSt3maxIfERKT_S2_S2_(ptr noundef nonnull align 4 dereferenceable(4) %6, ptr noundef nonnull align 4 dereferenceable(4) %12)
  %14 = load float, ptr %13, align 4, !tbaa !9
  call void @llvm.lifetime.start.p0(i64 4, ptr %7) #20
  store float 0.000000e+00, ptr %7, align 4, !tbaa !9
  %15 = getelementptr inbounds nuw %"class.pbrt::RGB", ptr %4, i32 0, i32 1
  %16 = call noundef nonnull align 4 dereferenceable(4) ptr @_ZSt3maxIfERKT_S2_S2_(ptr noundef nonnull align 4 dereferenceable(4) %7, ptr noundef nonnull align 4 dereferenceable(4) %15)
  %17 = load float, ptr %16, align 4, !tbaa !9
  call void @llvm.lifetime.start.p0(i64 4, ptr %8) #20
  store float 0.000000e+00, ptr %8, align 4, !tbaa !9
  %18 = getelementptr inbounds nuw %"class.pbrt::RGB", ptr %4, i32 0, i32 2
  %19 = call noundef nonnull align 4 dereferenceable(4) ptr @_ZSt3maxIfERKT_S2_S2_(ptr noundef nonnull align 4 dereferenceable(4) %8, ptr noundef nonnull align 4 dereferenceable(4) %18)
  %20 = load float, ptr %19, align 4, !tbaa !9
  call void @_ZN4pbrt3RGBC2Efff(ptr noundef nonnull align 4 dereferenceable(12) %3, float noundef %14, float noundef %17, float noundef %20)
  call void @llvm.lifetime.end.p0(i64 4, ptr %8) #20
  call void @llvm.lifetime.end.p0(i64 4, ptr %7) #20
  call void @llvm.lifetime.end.p0(i64 4, ptr %6) #20
  call void @llvm.memcpy.p0.p0.i64(ptr align 8 %9, ptr align 4 %3, i64 12, i1 false)
  %21 = load { <2 x float>, float }, ptr %9, align 8
  ret { <2 x float>, float } %21
}

; Function Attrs: mustprogress uwtable
define dso_local { <2 x float>, float } @_ZNK4pbrt13RGBColorSpace11ToRGBCoeffsENS_3RGBE(ptr noundef nonnull align 8 dereferenceable(152) %0, <2 x float> %1, float %2) #3 align 2 {
  %4 = alloca %"class.pbrt::RGBSigmoidPolynomial", align 4
  %5 = alloca %"class.pbrt::RGB", align 4
  %6 = alloca { <2 x float>, float }, align 4
  %7 = alloca ptr, align 8
  %8 = alloca %"class.pbrt::RGB", align 4
  %9 = alloca %"class.pbrt::RGB", align 4
  %10 = alloca { <2 x float>, float }, align 4
  %11 = alloca { <2 x float>, float }, align 8
  %12 = alloca { <2 x float>, float }, align 4
  %13 = alloca { <2 x float>, float }, align 8
  %14 = alloca { <2 x float>, float }, align 8
  %15 = getelementptr inbounds nuw { <2 x float>, float }, ptr %6, i32 0, i32 0
  store <2 x float> %1, ptr %15, align 4
  %16 = getelementptr inbounds nuw { <2 x float>, float }, ptr %6, i32 0, i32 1
  store float %2, ptr %16, align 4
  call void @llvm.memcpy.p0.p0.i64(ptr align 4 %5, ptr align 4 %6, i64 12, i1 false)
  store ptr %0, ptr %7, align 8, !tbaa !13
  %17 = load ptr, ptr %7, align 8
  br label %18

18:                                               ; preds = %3
  br label %19

19:                                               ; preds = %18
  %20 = getelementptr inbounds nuw %"class.pbrt::RGBColorSpace", ptr %17, i32 0, i32 7
  %21 = load ptr, ptr %20, align 8, !tbaa !22
  call void @llvm.memcpy.p0.p0.i64(ptr align 4 %9, ptr align 4 %5, i64 12, i1 false), !tbaa.struct !54
  call void @llvm.memcpy.p0.p0.i64(ptr align 4 %10, ptr align 4 %9, i64 12, i1 false)
  %22 = getelementptr inbounds nuw { <2 x float>, float }, ptr %10, i32 0, i32 0
  %23 = load <2 x float>, ptr %22, align 4
  %24 = getelementptr inbounds nuw { <2 x float>, float }, ptr %10, i32 0, i32 1
  %25 = load float, ptr %24, align 4
  %26 = call { <2 x float>, float } @_ZN4pbrt9ClampZeroENS_3RGBE(<2 x float> %23, float %25)
  store { <2 x float>, float } %26, ptr %11, align 8
  call void @llvm.memcpy.p0.p0.i64(ptr align 4 %8, ptr align 8 %11, i64 12, i1 false)
  call void @llvm.memcpy.p0.p0.i64(ptr align 4 %12, ptr align 4 %8, i64 12, i1 false)
  %27 = getelementptr inbounds nuw { <2 x float>, float }, ptr %12, i32 0, i32 0
  %28 = load <2 x float>, ptr %27, align 4
  %29 = getelementptr inbounds nuw { <2 x float>, float }, ptr %12, i32 0, i32 1
  %30 = load float, ptr %29, align 4
  %31 = call { <2 x float>, float } @_ZNK4pbrt18RGBToSpectrumTableclENS_3RGBE(ptr noundef nonnull align 8 dereferenceable(16) %21, <2 x float> %28, float %30)
  store { <2 x float>, float } %31, ptr %13, align 8
  call void @llvm.memcpy.p0.p0.i64(ptr align 4 %4, ptr align 8 %13, i64 12, i1 false)
  call void @llvm.memcpy.p0.p0.i64(ptr align 8 %14, ptr align 4 %4, i64 12, i1 false)
  %32 = load { <2 x float>, float }, ptr %14, align 8
  ret { <2 x float>, float } %32
}