; Function Attrs: mustprogress uwtable
define dso_local { <2 x float>, float } @_ZNK4pbrt13RGBColorSpace11ToRGBCoeffsENS_3RGBE(ptr noundef nonnull readonly align 8 captures(none) dereferenceable(152) %0, <2 x float> %1, float %2) local_unnamed_addr #0 align 2 {
  %4 = getelementptr inbounds nuw i8, ptr %0, i64 144
  %5 = load ptr, ptr %4, align 8, !tbaa !14
  %.sroa.0.0.vec.extract.i = extractelement <2 x float> %1, i64 0
  %6 = fcmp ogt float %.sroa.0.0.vec.extract.i, 0.000000e+00
  %.sroa.speculated10.i = select i1 %6, float %.sroa.0.0.vec.extract.i, float 0.000000e+00
  %.sroa.0.4.vec.extract.i = extractelement <2 x float> %1, i64 1
  %7 = fcmp ogt float %.sroa.0.4.vec.extract.i, 0.000000e+00
  %.sroa.speculated6.i = select i1 %7, float %.sroa.0.4.vec.extract.i, float 0.000000e+00
  %8 = fcmp ogt float %2, 0.000000e+00
  %.sroa.speculated.i = select i1 %8, float %2, float 0.000000e+00
  %.sroa.017.0.vec.insert.i = insertelement <2 x float> poison, float %.sroa.speculated10.i, i64 0
  %.sroa.017.4.vec.insert.i = insertelement <2 x float> %.sroa.017.0.vec.insert.i, float %.sroa.speculated6.i, i64 1
  %9 = tail call { <2 x float>, float } @_ZNK4pbrt18RGBToSpectrumTableclENS_3RGBE(ptr noundef nonnull align 8 dereferenceable(16) %5, <2 x float> %.sroa.017.4.vec.insert.i, float %.sroa.speculated.i)
  ret { <2 x float>, float } %9
}